; Function Attrs: mustprogress nofree norecurse nosync nounwind willreturn memory(readwrite, inaccessiblemem: none) uwtable
define hidden void @_ZN22DiscoveredListIterator6removeEv(ptr nocapture noundef nonnull align 8 dereferenceable(96) %0) local_unnamed_addr #7 align 2 {
  %2 = getelementptr inbounds i8, ptr %0, i64 32
  %3 = load ptr, ptr %2, align 8
  %4 = load i8, ptr @UseCompressedOops, align 1
  %5 = trunc i8 %4 to i1
  br i1 %5, label %6, label %7

6:                                                ; preds = %1
  store i32 0, ptr %3, align 4
  br label %_ZN6AccessILm2048EE9oop_storeIP12HeapWordImplP7oopDescEEvPT_T0_.exit

7:                                                ; preds = %1
  store ptr null, ptr %3, align 8
  br label %_ZN6AccessILm2048EE9oop_storeIP12HeapWordImplP7oopDescEEvPT_T0_.exit

_ZN6AccessILm2048EE9oop_storeIP12HeapWordImplP7oopDescEEvPT_T0_.exit: ; preds = %6, %7
  %8 = getelementptr inbounds i8, ptr %0, i64 40
  %9 = load ptr, ptr %8, align 8
  %10 = getelementptr inbounds i8, ptr %0, i64 24
  %11 = load ptr, ptr %10, align 8
  %12 = icmp eq ptr %9, %11
  %13 = getelementptr inbounds i8, ptr %0, i64 16
  %14 = load ptr, ptr %13, align 8
  %.0 = select i1 %12, ptr %14, ptr %9
  %15 = getelementptr inbounds i8, ptr %0, i64 8
  %16 = load ptr, ptr %15, align 8
  %17 = load i8, ptr @UseCompressedOops, align 1
  %18 = trunc i8 %17 to i1
  br i1 %18, label %19, label %30

19:                                               ; preds = %_ZN6AccessILm2048EE9oop_storeIP12HeapWordImplP7oopDescEEvPT_T0_.exit
  %20 = icmp eq ptr %.0, null
  %21 = load ptr, ptr @_ZN14CompressedOops11_narrow_oopE, align 8
  %22 = ptrtoint ptr %.0 to i64
  %23 = ptrtoint ptr %21 to i64
  %24 = sub i64 %22, %23
  %25 = load i32, ptr getelementptr inbounds (i8, ptr @_ZN14CompressedOops11_narrow_oopE, i64 8), align 8
  %26 = zext nneg i32 %25 to i64
  %27 = lshr i64 %24, %26
  %28 = trunc i64 %27 to i32
  %29 = select i1 %20, i32 0, i32 %28
  store i32 %29, ptr %16, align 4
  br label %_ZN6AccessILm2048EE9oop_storeIP12HeapWordImplP7oopDescEEvPT_T0_.exit3

30:                                               ; preds = %_ZN6AccessILm2048EE9oop_storeIP12HeapWordImplP7oopDescEEvPT_T0_.exit
  store ptr %.0, ptr %16, align 8
  br label %_ZN6AccessILm2048EE9oop_storeIP12HeapWordImplP7oopDescEEvPT_T0_.exit3

_ZN6AccessILm2048EE9oop_storeIP12HeapWordImplP7oopDescEEvPT_T0_.exit3: ; preds = %19, %30
  %31 = getelementptr inbounds i8, ptr %0, i64 88
  %32 = load i64, ptr %31, align 8
  %33 = add i64 %32, 1
  store i64 %33, ptr %31, align 8
  %34 = load ptr, ptr %0, align 8
  %35 = getelementptr inbounds i8, ptr %34, i64 16
  %36 = load i64, ptr %35, align 8
  %37 = add i64 %36, -1
  store i64 %37, ptr %35, align 8
  ret void
}